; Function Attrs: mustprogress uwtable
define void @_ZN15EditAlignPlugin15mousePressEventEP11QMouseEventR9MeshModelP6GLArea(ptr noundef nonnull align 8 dereferenceable(1056) %0, ptr nocapture noundef readonly %1, ptr nocapture nonnull readnone align 8 %2, ptr nocapture readnone %3) unnamed_addr #9 align 2 {
  %5 = getelementptr inbounds i8, ptr %0, i64 48
  %6 = load i32, ptr %5, align 8
  %7 = icmp eq i32 %6, 3
  br i1 %7, label %8, label %61

8:                                                ; preds = %4
  %9 = getelementptr inbounds i8, ptr %0, i64 64
  %10 = getelementptr inbounds i8, ptr %1, i64 32
  %11 = load double, ptr %10, align 8
  %12 = fcmp ult double %11, 0.000000e+00
  br i1 %12, label %16, label %13

13:                                               ; preds = %8
  %14 = fadd double %11, 5.000000e-01
  %15 = fptosi double %14 to i32
  br label %_ZNK11QMouseEvent1xEv.exit

16:                                               ; preds = %8
  %17 = fadd double %11, -1.000000e+00
  %18 = fptosi double %17 to i32
  %19 = sitofp i32 %18 to double
  %20 = fsub double %11, %19
  %21 = fadd double %20, 5.000000e-01
  %22 = fptosi double %21 to i32
  %23 = add nsw i32 %22, %18
  br label %_ZNK11QMouseEvent1xEv.exit

_ZNK11QMouseEvent1xEv.exit:                       ; preds = %13, %16
  %24 = phi i32 [ %15, %13 ], [ %23, %16 ]
  %25 = getelementptr inbounds i8, ptr %0, i64 664
  %26 = load ptr, ptr %25, align 8
  %27 = getelementptr inbounds i8, ptr %26, i64 40
  %28 = load ptr, ptr %27, align 8
  %29 = getelementptr inbounds i8, ptr %28, i64 32
  %30 = load i32, ptr %29, align 4
  %31 = getelementptr inbounds i8, ptr %28, i64 24
  %32 = load i32, ptr %31, align 4
  %33 = getelementptr inbounds i8, ptr %1, i64 40
  %34 = load double, ptr %33, align 8
  %35 = fcmp ult double %34, 0.000000e+00
  br i1 %35, label %39, label %36

36:                                               ; preds = %_ZNK11QMouseEvent1xEv.exit
  %37 = fadd double %34, 5.000000e-01
  %38 = fptosi double %37 to i32
  br label %_ZNK11QMouseEvent1yEv.exit

39:                                               ; preds = %_ZNK11QMouseEvent1xEv.exit
  %40 = fadd double %34, -1.000000e+00
  %41 = fptosi double %40 to i32
  %42 = sitofp i32 %41 to double
  %43 = fsub double %34, %42
  %44 = fadd double %43, 5.000000e-01
  %45 = fptosi double %44 to i32
  %46 = add nsw i32 %45, %41
  br label %_ZNK11QMouseEvent1yEv.exit

_ZNK11QMouseEvent1yEv.exit:                       ; preds = %36, %39
  %47 = phi i32 [ %38, %36 ], [ %46, %39 ]
  %.neg6 = add i32 %30, 1
  %48 = add i32 %32, %47
  %49 = sub i32 %.neg6, %48
  %50 = getelementptr inbounds i8, ptr %1, i64 80
  %51 = load i32, ptr %50, align 8
  %52 = getelementptr inbounds i8, ptr %1, i64 20
  %.sroa.0.0.copyload.i = load i32, ptr %52, align 4
  %53 = and i32 %51, 1
  %54 = shl i32 %51, 1
  %55 = and i32 %54, 4
  %.1.i = or disjoint i32 %55, %53
  %56 = lshr i32 %51, 1
  %57 = and i32 %56, 2
  %.2.i = or disjoint i32 %.1.i, %57
  %58 = lshr i32 %.sroa.0.0.copyload.i, 21
  %59 = and i32 %58, 112
  %.5.i = or disjoint i32 %.2.i, %59
  tail call void @_ZN3vcg9Trackball9MouseDownEiii(ptr noundef nonnull align 8 dereferenceable(597) %9, i32 noundef %24, i32 noundef %49, i32 noundef %.5.i)
  %60 = load ptr, ptr %25, align 8
  tail call void @_ZN7QWidget6updateEv(ptr noundef nonnull align 8 dereferenceable(48) %60)
  br label %61

61:                                               ; preds = %_ZNK11QMouseEvent1yEv.exit, %4
  ret void
}